target datalayout = "e-m:e-p270:32:32-p271:32:32-p272:64:64-i64:64-i128:128-f80:128-n8:16:32:64-S128"
target triple = "x86_64-pc-linux-gnu"

%struct.VLCElem = type { %union.anon.3 }
%union.anon.3 = type { %struct.anon }
%struct.anon = type { i16, i16 }
%struct.RLTable = type { i32, i32, ptr, ptr, ptr, [2 x ptr], [2 x ptr], [2 x ptr], [32 x ptr] }
%struct.VLCInitState = type { ptr, i32 }

@sprite_trajectory = internal global [128 x %struct.VLCElem] zeroinitializer, align 16
@dc_lum = internal global [512 x %struct.VLCElem] zeroinitializer, align 16
@dc_chrom = internal global [512 x %struct.VLCElem] zeroinitializer, align 16
@studio_intra_tab = internal global [12 x ptr] zeroinitializer, align 16
@studio_luma_dc = internal global [528 x %struct.VLCElem] zeroinitializer, align 16
@studio_chroma_dc = internal global [528 x %struct.VLCElem] zeroinitializer, align 16
@ff_rvlc_rl_intra = external global %struct.RLTable, align 8
@ff_mpeg4_rl_intra = external global %struct.RLTable, align 8
@ff_rvlc_rl_inter = external global %struct.RLTable, align 8
@mb_type_b_vlc = internal global [16 x %struct.VLCElem] zeroinitializer, align 16
@mpeg4_init_static.mpeg4_rvlc_rl_tables = internal global [2 x [2 x [195 x i8]]] zeroinitializer, align 16
@__const.mpeg4_init_static.state = private unnamed_addr constant { ptr, i32, [4 x i8] } { ptr @mpeg4_init_static.vlc_buf, i32 6498, [4 x i8] zeroinitializer }, align 8
@ff_mpeg4_studio_dc_luma = external constant [19 x [2 x i8]], align 16
@ff_mpeg4_studio_dc_chroma = external constant [19 x [2 x i8]], align 16
@ff_mpeg4_studio_intra = external constant [12 x [24 x [2 x i8]]], align 16
@mpeg4_init_static.rl_vlc_table = internal global [554 x %struct.VLCElem] zeroinitializer, align 16
@mpeg4_init_static.rl_vlc_table.179 = internal global [32 x [1072 x %struct.VLCElem]] zeroinitializer, align 16
@mpeg4_init_static.rl_vlc_table.180 = internal global [1072 x %struct.VLCElem] zeroinitializer, align 16
@ff_mpeg4_DCtab_lum = external constant [13 x [2 x i8]], align 16
@ff_mpeg4_DCtab_chrom = external constant [13 x [2 x i8]], align 16
@ff_sprite_trajectory_lens = external constant [15 x i8], align 1
@ff_mb_type_b_tab = external constant [4 x [2 x i8]], align 1
@mb_type_b_map = internal constant [4 x i16] [i16 12544, i16 12296, i16 8200, i16 4104], align 2

; Function Attrs: cold nounwind optsize uwtable
define internal void @mpeg4_init_static() #5 {
  %1 = alloca %struct.VLCInitState, align 8
  %2 = alloca i32, align 4
  %3 = alloca i32, align 4
  call void @llvm.lifetime.start.p0(i64 16, ptr %1) #13
  call void @llvm.memcpy.p0.p0.i64(ptr align 8 %1, ptr align 8 @__const.mpeg4_init_static.state, i64 16, i1 false)
  call void @ff_vlc_init_table_from_lengths(ptr noundef @studio_luma_dc, i32 noundef 528, i32 noundef 9, i32 noundef 19, ptr noundef getelementptr inbounds ([2 x i8], ptr @ff_mpeg4_studio_dc_luma, i64 0, i64 1), i32 noundef 2, ptr noundef @ff_mpeg4_studio_dc_luma, i32 noundef 2, i32 noundef 1, i32 noundef 0, i32 noundef 0)
  call void @ff_vlc_init_table_from_lengths(ptr noundef @studio_chroma_dc, i32 noundef 528, i32 noundef 9, i32 noundef 19, ptr noundef getelementptr inbounds ([2 x i8], ptr @ff_mpeg4_studio_dc_chroma, i64 0, i64 1), i32 noundef 2, ptr noundef @ff_mpeg4_studio_dc_chroma, i32 noundef 2, i32 noundef 1, i32 noundef 0, i32 noundef 0)
  call void @llvm.lifetime.start.p0(i64 4, ptr %2) #13
  store i32 0, ptr %2, align 4, !tbaa !47
  br label %4

4:                                                ; preds = %23, %0
  %5 = load i32, ptr %2, align 4, !tbaa !47
  %6 = icmp ult i32 %5, 12
  br i1 %6, label %8, label %7

7:                                                ; preds = %4
  call void @llvm.lifetime.end.p0(i64 4, ptr %2) #13
  br label %26

8:                                                ; preds = %4
  %9 = load i32, ptr %2, align 4, !tbaa !47
  %10 = zext i32 %9 to i64
  %11 = getelementptr inbounds nuw [12 x [24 x [2 x i8]]], ptr @ff_mpeg4_studio_intra, i64 0, i64 %10
  %12 = getelementptr inbounds [24 x [2 x i8]], ptr %11, i64 0, i64 0
  %13 = getelementptr inbounds [2 x i8], ptr %12, i64 0, i64 1
  %14 = load i32, ptr %2, align 4, !tbaa !47
  %15 = zext i32 %14 to i64
  %16 = getelementptr inbounds nuw [12 x [24 x [2 x i8]]], ptr @ff_mpeg4_studio_intra, i64 0, i64 %15
  %17 = getelementptr inbounds [24 x [2 x i8]], ptr %16, i64 0, i64 0
  %18 = getelementptr inbounds [2 x i8], ptr %17, i64 0, i64 0
  %19 = call ptr @ff_vlc_init_tables_from_lengths(ptr noundef %1, i32 noundef 9, i32 noundef 24, ptr noundef %13, i32 noundef 2, ptr noundef %18, i32 noundef 2, i32 noundef 1, i32 noundef 0, i32 noundef 0)
  %20 = load i32, ptr %2, align 4, !tbaa !47
  %21 = zext i32 %20 to i64
  %22 = getelementptr inbounds nuw [12 x ptr], ptr @studio_intra_tab, i64 0, i64 %21
  store ptr %19, ptr %22, align 8, !tbaa !265
  br label %23

23:                                               ; preds = %8
  %24 = load i32, ptr %2, align 4, !tbaa !47
  %25 = add i32 %24, 1
  store i32 %25, ptr %2, align 4, !tbaa !47
  br label %4, !llvm.loop !326

26:                                               ; preds = %7
  call void @ff_mpeg4_init_rl_intra()
  call void @ff_rl_init(ptr noundef @ff_rvlc_rl_inter, ptr noundef @mpeg4_init_static.mpeg4_rvlc_rl_tables)
  call void @ff_rl_init(ptr noundef @ff_rvlc_rl_intra, ptr noundef getelementptr inbounds ([2 x [2 x [195 x i8]]], ptr @mpeg4_init_static.mpeg4_rvlc_rl_tables, i64 0, i64 1))
  br label %27

27:                                               ; preds = %26
  store ptr @mpeg4_init_static.rl_vlc_table, ptr getelementptr inbounds nuw (%struct.RLTable, ptr @ff_mpeg4_rl_intra, i32 0, i32 8), align 8, !tbaa !265
  call void @ff_rl_init_vlc(ptr noundef @ff_mpeg4_rl_intra, i32 noundef 554)
  br label %28

28:                                               ; preds = %27
  br label %29

29:                                               ; preds = %28
  call void @llvm.lifetime.start.p0(i64 4, ptr %3) #13
  store i32 0, ptr %3, align 4, !tbaa !47
  br label %30

30:                                               ; preds = %42, %29
  %31 = load i32, ptr %3, align 4, !tbaa !47
  %32 = icmp slt i32 %31, 32
  br i1 %32, label %34, label %33

33:                                               ; preds = %30
  call void @llvm.lifetime.end.p0(i64 4, ptr %3) #13
  br label %45

34:                                               ; preds = %30
  %35 = load i32, ptr %3, align 4, !tbaa !47
  %36 = sext i32 %35 to i64
  %37 = getelementptr inbounds [32 x [1072 x %struct.VLCElem]], ptr @mpeg4_init_static.rl_vlc_table.179, i64 0, i64 %36
  %38 = getelementptr inbounds [1072 x %struct.VLCElem], ptr %37, i64 0, i64 0
  %39 = load i32, ptr %3, align 4, !tbaa !47
  %40 = sext i32 %39 to i64
  %41 = getelementptr inbounds [32 x ptr], ptr getelementptr inbounds nuw (%struct.RLTable, ptr @ff_rvlc_rl_inter, i32 0, i32 8), i64 0, i64 %40
  store ptr %38, ptr %41, align 8, !tbaa !265
  br label %42

42:                                               ; preds = %34
  %43 = load i32, ptr %3, align 4, !tbaa !47
  %44 = add nsw i32 %43, 1
  store i32 %44, ptr %3, align 4, !tbaa !47
  br label %30, !llvm.loop !327

45:                                               ; preds = %33
  call void @ff_rl_init_vlc(ptr noundef @ff_rvlc_rl_inter, i32 noundef 1072)
  br label %46

46:                                               ; preds = %45
  store ptr @mpeg4_init_static.rl_vlc_table.180, ptr getelementptr inbounds nuw (%struct.RLTable, ptr @ff_rvlc_rl_intra, i32 0, i32 8), align 8, !tbaa !265
  call void @ff_rl_init_vlc(ptr noundef @ff_rvlc_rl_intra, i32 noundef 1072)
  br label %47

47:                                               ; preds = %46
  br label %48

48:                                               ; preds = %47
  call void @ff_vlc_init_table_sparse(ptr noundef @dc_lum, i32 noundef 512, i32 noundef 9, i32 noundef 10, ptr noundef getelementptr inbounds ([2 x i8], ptr @ff_mpeg4_DCtab_lum, i64 0, i64 1), i32 noundef 2, i32 noundef 1, ptr noundef @ff_mpeg4_DCtab_lum, i32 noundef 2, i32 noundef 1, ptr noundef null, i32 noundef 0, i32 noundef 0, i32 noundef 0)
  call void @ff_vlc_init_table_sparse(ptr noundef @dc_chrom, i32 noundef 512, i32 noundef 9, i32 noundef 10, ptr noundef getelementptr inbounds ([2 x i8], ptr @ff_mpeg4_DCtab_chrom, i64 0, i64 1), i32 noundef 2, i32 noundef 1, ptr noundef @ff_mpeg4_DCtab_chrom, i32 noundef 2, i32 noundef 1, ptr noundef null, i32 noundef 0, i32 noundef 0, i32 noundef 0)
  call void @ff_vlc_init_table_from_lengths(ptr noundef @sprite_trajectory, i32 noundef 128, i32 noundef 6, i32 noundef 15, ptr noundef @ff_sprite_trajectory_lens, i32 noundef 1, ptr noundef null, i32 noundef 0, i32 noundef 0, i32 noundef 0, i32 noundef 0)
  call void @ff_vlc_init_table_sparse(ptr noundef @mb_type_b_vlc, i32 noundef 16, i32 noundef 4, i32 noundef 4, ptr noundef getelementptr inbounds ([2 x i8], ptr @ff_mb_type_b_tab, i64 0, i64 1), i32 noundef 2, i32 noundef 1, ptr noundef @ff_mb_type_b_tab, i32 noundef 2, i32 noundef 1, ptr noundef @mb_type_b_map, i32 noundef 2, i32 noundef 2, i32 noundef 0)
  call void @llvm.lifetime.end.p0(i64 16, ptr %1) #13
  ret void
}