; Function Attrs: cold nounwind optsize uwtable
define internal void @mpeg4_init_static() #6 {
  %1 = alloca %struct.VLCInitState, align 8
  call void @llvm.lifetime.start.p0(i64 16, ptr nonnull %1) #16
  call void @llvm.memcpy.p0.p0.i64(ptr noundef nonnull align 8 dereferenceable(16) %1, ptr noundef nonnull align 8 dereferenceable(16) @__const.mpeg4_init_static.state, i64 16, i1 false)
  tail call void @ff_vlc_init_table_from_lengths(ptr noundef nonnull @studio_luma_dc, i32 noundef 528, i32 noundef 9, i32 noundef 19, ptr noundef nonnull getelementptr inbounds nuw (i8, ptr @ff_mpeg4_studio_dc_luma, i64 1), i32 noundef 2, ptr noundef nonnull @ff_mpeg4_studio_dc_luma, i32 noundef 2, i32 noundef 1, i32 noundef 0, i32 noundef 0) #16
  tail call void @ff_vlc_init_table_from_lengths(ptr noundef nonnull @studio_chroma_dc, i32 noundef 528, i32 noundef 9, i32 noundef 19, ptr noundef nonnull getelementptr inbounds nuw (i8, ptr @ff_mpeg4_studio_dc_chroma, i64 1), i32 noundef 2, ptr noundef nonnull @ff_mpeg4_studio_dc_chroma, i32 noundef 2, i32 noundef 1, i32 noundef 0, i32 noundef 0) #16
  br label %3

2:                                                ; preds = %3
  call void @ff_mpeg4_init_rl_intra() #16
  call void @ff_rl_init(ptr noundef nonnull @ff_rvlc_rl_inter, ptr noundef nonnull @mpeg4_init_static.mpeg4_rvlc_rl_tables) #16
  call void @ff_rl_init(ptr noundef nonnull @ff_rvlc_rl_intra, ptr noundef nonnull getelementptr inbounds nuw (i8, ptr @mpeg4_init_static.mpeg4_rvlc_rl_tables, i64 390)) #16
  store ptr @mpeg4_init_static.rl_vlc_table, ptr getelementptr inbounds nuw (i8, ptr @ff_mpeg4_rl_intra, i64 80), align 8, !tbaa !263
  call void @ff_rl_init_vlc(ptr noundef nonnull @ff_mpeg4_rl_intra, i32 noundef 554) #16
  br label %9

3:                                                ; preds = %0, %3
  %indvars.iv = phi i64 [ 0, %0 ], [ %indvars.iv.next, %3 ]
  %4 = getelementptr inbounds nuw [12 x [24 x [2 x i8]]], ptr @ff_mpeg4_studio_intra, i64 0, i64 %indvars.iv
  %5 = getelementptr inbounds nuw i8, ptr %4, i64 1
  %6 = call ptr @ff_vlc_init_tables_from_lengths(ptr noundef nonnull %1, i32 noundef 9, i32 noundef 24, ptr noundef nonnull %5, i32 noundef 2, ptr noundef nonnull %4, i32 noundef 2, i32 noundef 1, i32 noundef 0, i32 noundef 0) #16
  %7 = getelementptr inbounds nuw [12 x ptr], ptr @studio_intra_tab, i64 0, i64 %indvars.iv
  store ptr %6, ptr %7, align 8, !tbaa !263
  %indvars.iv.next = add nuw nsw i64 %indvars.iv, 1
  %exitcond.not = icmp eq i64 %indvars.iv.next, 12
  br i1 %exitcond.not, label %2, label %3, !llvm.loop !295

8:                                                ; preds = %9
  call void @ff_rl_init_vlc(ptr noundef nonnull @ff_rvlc_rl_inter, i32 noundef 1072) #16
  store ptr @mpeg4_init_static.rl_vlc_table.180, ptr getelementptr inbounds nuw (i8, ptr @ff_rvlc_rl_intra, i64 80), align 8, !tbaa !263
  call void @ff_rl_init_vlc(ptr noundef nonnull @ff_rvlc_rl_intra, i32 noundef 1072) #16
  call void @ff_vlc_init_table_sparse(ptr noundef nonnull @dc_lum, i32 noundef 512, i32 noundef 9, i32 noundef 10, ptr noundef nonnull getelementptr inbounds nuw (i8, ptr @ff_mpeg4_DCtab_lum, i64 1), i32 noundef 2, i32 noundef 1, ptr noundef nonnull @ff_mpeg4_DCtab_lum, i32 noundef 2, i32 noundef 1, ptr noundef null, i32 noundef 0, i32 noundef 0, i32 noundef 0) #16
  call void @ff_vlc_init_table_sparse(ptr noundef nonnull @dc_chrom, i32 noundef 512, i32 noundef 9, i32 noundef 10, ptr noundef nonnull getelementptr inbounds nuw (i8, ptr @ff_mpeg4_DCtab_chrom, i64 1), i32 noundef 2, i32 noundef 1, ptr noundef nonnull @ff_mpeg4_DCtab_chrom, i32 noundef 2, i32 noundef 1, ptr noundef null, i32 noundef 0, i32 noundef 0, i32 noundef 0) #16
  call void @ff_vlc_init_table_from_lengths(ptr noundef nonnull @sprite_trajectory, i32 noundef 128, i32 noundef 6, i32 noundef 15, ptr noundef nonnull @ff_sprite_trajectory_lens, i32 noundef 1, ptr noundef null, i32 noundef 0, i32 noundef 0, i32 noundef 0, i32 noundef 0) #16
  call void @ff_vlc_init_table_sparse(ptr noundef nonnull @mb_type_b_vlc, i32 noundef 16, i32 noundef 4, i32 noundef 4, ptr noundef nonnull getelementptr inbounds nuw (i8, ptr @ff_mb_type_b_tab, i64 1), i32 noundef 2, i32 noundef 1, ptr noundef nonnull @ff_mb_type_b_tab, i32 noundef 2, i32 noundef 1, ptr noundef nonnull @mb_type_b_map, i32 noundef 2, i32 noundef 2, i32 noundef 0) #16
  call void @llvm.lifetime.end.p0(i64 16, ptr nonnull %1) #16
  ret void

9:                                                ; preds = %2, %9
  %indvars.iv13 = phi i64 [ 0, %2 ], [ %indvars.iv.next14, %9 ]
  %10 = getelementptr inbounds nuw [32 x [1072 x %struct.VLCElem]], ptr @mpeg4_init_static.rl_vlc_table.179, i64 0, i64 %indvars.iv13
  %11 = getelementptr inbounds nuw [32 x ptr], ptr getelementptr inbounds nuw (i8, ptr @ff_rvlc_rl_inter, i64 80), i64 0, i64 %indvars.iv13
  store ptr %10, ptr %11, align 8, !tbaa !263
  %indvars.iv.next14 = add nuw nsw i64 %indvars.iv13, 1
  %exitcond16.not = icmp eq i64 %indvars.iv.next14, 32
  br i1 %exitcond16.not, label %8, label %9, !llvm.loop !296
}